target datalayout = "e-m:e-p270:32:32-p271:32:32-p272:64:64-i64:64-i128:128-f80:128-n8:16:32:64-S128"
target triple = "x86_64-pc-linux-gnu"

%class.ShenandoahAllocRequest = type <{ i64, i64, i64, i32, [4 x i8] }>

; Function Attrs: mustprogress nounwind uwtable
define linkonce_odr hidden void @_ZN22ShenandoahAllocRequestC2EmmNS_4TypeE(ptr noundef nonnull align 8 dereferenceable(28) %0, i64 noundef %1, i64 noundef %2, i32 noundef %3) unnamed_addr #1 comdat align 2 {
  %5 = alloca ptr, align 8
  %6 = alloca i64, align 8
  %7 = alloca i64, align 8
  %8 = alloca i32, align 4
  store ptr %0, ptr %5, align 8
  store i64 %1, ptr %6, align 8
  store i64 %2, ptr %7, align 8
  store i32 %3, ptr %8, align 4
  %9 = load ptr, ptr %5, align 8
  %10 = getelementptr inbounds %class.ShenandoahAllocRequest, ptr %9, i32 0, i32 0
  %11 = load i64, ptr %6, align 8
  store i64 %11, ptr %10, align 8
  %12 = getelementptr inbounds %class.ShenandoahAllocRequest, ptr %9, i32 0, i32 1
  %13 = load i64, ptr %7, align 8
  store i64 %13, ptr %12, align 8
  %14 = getelementptr inbounds %class.ShenandoahAllocRequest, ptr %9, i32 0, i32 2
  store i64 0, ptr %14, align 8
  %15 = getelementptr inbounds %class.ShenandoahAllocRequest, ptr %9, i32 0, i32 3
  %16 = load i32, ptr %8, align 4
  store i32 %16, ptr %15, align 8
  ret void
}

; Function Attrs: mustprogress nounwind uwtable
define linkonce_odr hidden void @_ZN22ShenandoahAllocRequest10for_sharedEm(ptr dead_on_unwind noalias writable sret(%class.ShenandoahAllocRequest) align 8 %0, i64 noundef %1) #1 comdat align 2 {
  %3 = alloca i64, align 8
  store i64 %1, ptr %3, align 8
  %4 = load i64, ptr %3, align 8
  call void @_ZN22ShenandoahAllocRequestC2EmmNS_4TypeE(ptr noundef nonnull align 8 dereferenceable(28) %0, i64 noundef 0, i64 noundef %4, i32 noundef 0)
  ret void
}

; Function Attrs: mustprogress nounwind uwtable
define hidden noundef ptr @_ZN14ShenandoahHeap12mem_allocateEmPb(ptr noundef nonnull align 8 dereferenceable(2657) %0, i64 noundef %1, ptr noundef %2) unnamed_addr #1 align 2 {
  %4 = alloca ptr, align 8
  %5 = alloca i64, align 8
  %6 = alloca ptr, align 8
  %7 = alloca %class.ShenandoahAllocRequest, align 8
  store ptr %0, ptr %4, align 8
  store i64 %1, ptr %5, align 8
  store ptr %2, ptr %6, align 8
  %8 = load ptr, ptr %4, align 8
  %9 = load i64, ptr %5, align 8
  call void @_ZN22ShenandoahAllocRequest10for_sharedEm(ptr dead_on_unwind writable sret(%class.ShenandoahAllocRequest) align 8 %7, i64 noundef %9)
  %10 = call noundef ptr @_ZN14ShenandoahHeap15allocate_memoryER22ShenandoahAllocRequest(ptr noundef nonnull align 8 dereferenceable(2657) %8, ptr noundef nonnull align 8 dereferenceable(28) %7)
  ret ptr %10
}