; Function Attrs: mustprogress nounwind uwtable
define hidden noundef ptr @_ZN14ShenandoahHeap12mem_allocateEmPb(ptr noundef nonnull align 8 dereferenceable(2657) %0, i64 noundef %1, ptr nocapture readnone %2) unnamed_addr #1 align 2 {
  %4 = alloca %class.ShenandoahAllocRequest, align 8
  store i64 0, ptr %4, align 8, !alias.scope !31
  %5 = getelementptr inbounds i8, ptr %4, i64 8
  store i64 %1, ptr %5, align 8, !alias.scope !31
  %6 = getelementptr inbounds i8, ptr %4, i64 16
  store i64 0, ptr %6, align 8, !alias.scope !31
  %7 = getelementptr inbounds i8, ptr %4, i64 24
  store i32 0, ptr %7, align 8, !alias.scope !31
  %8 = call noundef ptr @_ZN14ShenandoahHeap15allocate_memoryER22ShenandoahAllocRequest(ptr noundef nonnull align 8 dereferenceable(2657) %0, ptr noundef nonnull align 8 dereferenceable(28) %4)
  ret ptr %8
}